; Function Attrs: mustprogress nounwind uwtable
define internal fastcc void @_ZN12_GLOBAL__N_116OptMuxtreeWorker11knowledge_tD2Ev(ptr nocapture noundef nonnull align 8 dereferenceable(88) %0) unnamed_addr #3 align 2 personality ptr @__gxx_personality_v0 {
  %2 = getelementptr inbounds i8, ptr %0, i64 48
  %3 = load ptr, ptr %2, align 8
  %.not.i.i.i = icmp eq ptr %3, null
  br i1 %.not.i.i.i, label %_ZNSt6vectorIbSaIbEED2Ev.exit, label %4

4:                                                ; preds = %1
  %5 = getelementptr inbounds i8, ptr %0, i64 80
  %6 = load ptr, ptr %5, align 8
  %7 = ptrtoint ptr %6 to i64
  %8 = ptrtoint ptr %3 to i64
  %9 = sub i64 %7, %8
  %10 = ashr exact i64 %9, 3
  %11 = sub nsw i64 0, %10
  %12 = getelementptr inbounds i64, ptr %6, i64 %11
  tail call void @_ZdlPv(ptr noundef %12) #18
  store ptr null, ptr %2, align 8
  %.sroa.2.0..sroa_idx.i.i.i.i = getelementptr inbounds i8, ptr %0, i64 56
  store i32 0, ptr %.sroa.2.0..sroa_idx.i.i.i.i, align 8
  %.sroa.31.0..sroa_idx.i.i.i.i = getelementptr inbounds i8, ptr %0, i64 64
  store ptr null, ptr %.sroa.31.0..sroa_idx.i.i.i.i, align 8
  %.sroa.4.0..sroa_idx.i.i.i.i = getelementptr inbounds i8, ptr %0, i64 72
  store i32 0, ptr %.sroa.4.0..sroa_idx.i.i.i.i, align 8
  store ptr null, ptr %5, align 8
  br label %_ZNSt6vectorIbSaIbEED2Ev.exit

_ZNSt6vectorIbSaIbEED2Ev.exit:                    ; preds = %1, %4
  %13 = getelementptr inbounds i8, ptr %0, i64 24
  %14 = load ptr, ptr %13, align 8
  %.not.i.i.i1 = icmp eq ptr %14, null
  br i1 %.not.i.i.i1, label %_ZNSt6vectorIiSaIiEED2Ev.exit, label %15

15:                                               ; preds = %_ZNSt6vectorIbSaIbEED2Ev.exit
  tail call void @_ZdlPv(ptr noundef nonnull %14) #18
  br label %_ZNSt6vectorIiSaIiEED2Ev.exit

_ZNSt6vectorIiSaIiEED2Ev.exit:                    ; preds = %_ZNSt6vectorIbSaIbEED2Ev.exit, %15
  %16 = load ptr, ptr %0, align 8
  %.not.i.i.i2 = icmp eq ptr %16, null
  br i1 %.not.i.i.i2, label %_ZNSt6vectorIiSaIiEED2Ev.exit3, label %17

17:                                               ; preds = %_ZNSt6vectorIiSaIiEED2Ev.exit
  tail call void @_ZdlPv(ptr noundef nonnull %16) #18
  br label %_ZNSt6vectorIiSaIiEED2Ev.exit3

_ZNSt6vectorIiSaIiEED2Ev.exit3:                   ; preds = %_ZNSt6vectorIiSaIiEED2Ev.exit, %17
  ret void
}